target datalayout = "e-m:e-p270:32:32-p271:32:32-p272:64:64-i64:64-i128:128-f80:128-n8:16:32:64-S128"
target triple = "x86_64-pc-linux-gnu"

; Function Attrs: mustprogress nounwind uwtable
define linkonce_odr hidden noundef zeroext i1 @_ZN4LIEF2PE6Header11is_loonarchENS1_13MACHINE_TYPESE(i32 noundef %0) #1 comdat align 2 {
  %2 = alloca i1, align 1
  %3 = alloca i32, align 4
  store i32 %0, ptr %3, align 4, !tbaa !15
  %4 = load i32, ptr %3, align 4, !tbaa !15
  switch i32 %4, label %5 [
    i32 25138, label %6
    i32 25188, label %6
  ]

5:                                                ; preds = %1
  store i1 false, ptr %2, align 1
  br label %7

6:                                                ; preds = %1, %1
  store i1 true, ptr %2, align 1
  br label %7

7:                                                ; preds = %6, %5
  %8 = load i1, ptr %2, align 1
  ret i1 %8
}

; Function Attrs: mustprogress nounwind uwtable
define linkonce_odr hidden noundef zeroext i1 @_ZN4LIEF2PE6Header8is_thumbENS1_13MACHINE_TYPESE(i32 noundef %0) #1 comdat align 2 {
  %2 = alloca i32, align 4
  store i32 %0, ptr %2, align 4, !tbaa !15
  %3 = load i32, ptr %2, align 4, !tbaa !15
  %4 = icmp eq i32 %3, 450
  ret i1 %4
}

; Function Attrs: mustprogress nounwind uwtable
define linkonce_odr hidden noundef zeroext i1 @_ZN4LIEF2PE6Header8is_riscvENS1_13MACHINE_TYPESE(i32 noundef %0) #1 comdat align 2 {
  %2 = alloca i1, align 1
  %3 = alloca i32, align 4
  store i32 %0, ptr %3, align 4, !tbaa !15
  %4 = load i32, ptr %3, align 4, !tbaa !15
  switch i32 %4, label %5 [
    i32 20530, label %6
    i32 20580, label %6
    i32 20776, label %6
  ]

5:                                                ; preds = %1
  store i1 false, ptr %2, align 1
  br label %7

6:                                                ; preds = %1, %1, %1
  store i1 true, ptr %2, align 1
  br label %7

7:                                                ; preds = %6, %5
  %8 = load i1, ptr %2, align 1
  ret i1 %8
}

; Function Attrs: mustprogress nounwind uwtable
define linkonce_odr hidden noundef zeroext i1 @_ZN4LIEF2PE6Header6is_armENS1_13MACHINE_TYPESE(i32 noundef %0) #1 comdat align 2 {
  %2 = alloca i1, align 1
  %3 = alloca i32, align 4
  store i32 %0, ptr %3, align 4, !tbaa !15
  %4 = load i32, ptr %3, align 4, !tbaa !15
  switch i32 %4, label %5 [
    i32 448, label %6
    i32 450, label %6
    i32 452, label %6
  ]

5:                                                ; preds = %1
  store i1 false, ptr %2, align 1
  br label %7

6:                                                ; preds = %1, %1, %1
  store i1 true, ptr %2, align 1
  br label %7

7:                                                ; preds = %6, %5
  %8 = load i1, ptr %2, align 1
  ret i1 %8
}

; Function Attrs: mustprogress nounwind uwtable
define linkonce_odr hidden noundef zeroext i1 @_ZN4LIEF2PE6Header7is_mipsENS1_13MACHINE_TYPESE(i32 noundef %0) #1 comdat align 2 {
  %2 = alloca i1, align 1
  %3 = alloca i32, align 4
  store i32 %0, ptr %3, align 4, !tbaa !15
  %4 = load i32, ptr %3, align 4, !tbaa !15
  switch i32 %4, label %5 [
    i32 614, label %6
    i32 870, label %6
    i32 1126, label %6
    i32 358, label %6
    i32 361, label %6
  ]

5:                                                ; preds = %1
  store i1 false, ptr %2, align 1
  br label %7

6:                                                ; preds = %1, %1, %1, %1, %1
  store i1 true, ptr %2, align 1
  br label %7

7:                                                ; preds = %6, %5
  %8 = load i1, ptr %2, align 1
  ret i1 %8
}

; Function Attrs: mustprogress nounwind uwtable
define linkonce_odr hidden noundef zeroext i16 @_ZN4LIEF2PE15RelocationEntry8get_typeEt(i16 noundef zeroext %0) #1 comdat align 2 {
  %2 = alloca i16, align 2
  store i16 %0, ptr %2, align 2, !tbaa !17
  %3 = load i16, ptr %2, align 2, !tbaa !17
  %4 = zext i16 %3 to i32
  %5 = ashr i32 %4, 12
  %6 = and i32 %5, 255
  %7 = trunc i32 %6 to i16
  ret i16 %7
}

; Function Attrs: mustprogress nounwind uwtable
define noundef i32 @_ZN4LIEF2PE15RelocationEntry14type_from_dataENS0_6Header13MACHINE_TYPESEt(i32 noundef %0, i16 noundef zeroext %1) #1 align 2 {
  %3 = alloca i32, align 4
  %4 = alloca i32, align 4
  %5 = alloca i16, align 2
  %6 = alloca i8, align 1
  %7 = alloca i32, align 4
  store i32 %0, ptr %4, align 4, !tbaa !15
  store i16 %1, ptr %5, align 2, !tbaa !17
  call void @llvm.lifetime.start.p0(i64 1, ptr %6) #19
  %8 = load i16, ptr %5, align 2, !tbaa !17
  %9 = call noundef zeroext i16 @_ZN4LIEF2PE15RelocationEntry8get_typeEt(i16 noundef zeroext %8)
  %10 = trunc i16 %9 to i8
  store i8 %10, ptr %6, align 1, !tbaa !10
  %11 = load i8, ptr %6, align 1, !tbaa !10
  %12 = zext i8 %11 to i32
  %13 = icmp eq i32 %12, 5
  br i1 %13, label %14, label %27

14:                                               ; preds = %2
  %15 = load i32, ptr %4, align 4, !tbaa !15
  %16 = call noundef zeroext i1 @_ZN4LIEF2PE6Header7is_mipsENS1_13MACHINE_TYPESE(i32 noundef %15)
  br i1 %16, label %17, label %18

17:                                               ; preds = %14
  store i32 261, ptr %3, align 4
  store i32 1, ptr %7, align 4
  br label %56

18:                                               ; preds = %14
  %19 = load i32, ptr %4, align 4, !tbaa !15
  %20 = call noundef zeroext i1 @_ZN4LIEF2PE6Header6is_armENS1_13MACHINE_TYPESE(i32 noundef %19)
  br i1 %20, label %21, label %22

21:                                               ; preds = %18
  store i32 517, ptr %3, align 4
  store i32 1, ptr %7, align 4
  br label %56

22:                                               ; preds = %18
  %23 = load i32, ptr %4, align 4, !tbaa !15
  %24 = call noundef zeroext i1 @_ZN4LIEF2PE6Header8is_riscvENS1_13MACHINE_TYPESE(i32 noundef %23)
  br i1 %24, label %25, label %26

25:                                               ; preds = %22
  store i32 1029, ptr %3, align 4
  store i32 1, ptr %7, align 4
  br label %56

26:                                               ; preds = %22
  store i32 -1, ptr %3, align 4
  store i32 1, ptr %7, align 4
  br label %56

27:                                               ; preds = %2
  %28 = load i8, ptr %6, align 1, !tbaa !10
  %29 = zext i8 %28 to i32
  %30 = icmp eq i32 %29, 7
  br i1 %30, label %31, label %40

31:                                               ; preds = %27
  %32 = load i32, ptr %4, align 4, !tbaa !15
  %33 = call noundef zeroext i1 @_ZN4LIEF2PE6Header8is_thumbENS1_13MACHINE_TYPESE(i32 noundef %32)
  br i1 %33, label %34, label %35

34:                                               ; preds = %31
  store i32 2055, ptr %3, align 4
  store i32 1, ptr %7, align 4
  br label %56

35:                                               ; preds = %31
  %36 = load i32, ptr %4, align 4, !tbaa !15
  %37 = call noundef zeroext i1 @_ZN4LIEF2PE6Header8is_riscvENS1_13MACHINE_TYPESE(i32 noundef %36)
  br i1 %37, label %38, label %39

38:                                               ; preds = %35
  store i32 4103, ptr %3, align 4
  store i32 1, ptr %7, align 4
  br label %56

39:                                               ; preds = %35
  store i32 -1, ptr %3, align 4
  store i32 1, ptr %7, align 4
  br label %56

40:                                               ; preds = %27
  %41 = load i8, ptr %6, align 1, !tbaa !10
  %42 = zext i8 %41 to i32
  %43 = icmp eq i32 %42, 8
  br i1 %43, label %44, label %53

44:                                               ; preds = %40
  %45 = load i32, ptr %4, align 4, !tbaa !15
  %46 = call noundef zeroext i1 @_ZN4LIEF2PE6Header8is_riscvENS1_13MACHINE_TYPESE(i32 noundef %45)
  br i1 %46, label %47, label %48

47:                                               ; preds = %44
  store i32 8200, ptr %3, align 4
  store i32 1, ptr %7, align 4
  br label %56

48:                                               ; preds = %44
  %49 = load i32, ptr %4, align 4, !tbaa !15
  %50 = call noundef zeroext i1 @_ZN4LIEF2PE6Header11is_loonarchENS1_13MACHINE_TYPESE(i32 noundef %49)
  br i1 %50, label %51, label %52

51:                                               ; preds = %48
  store i32 16392, ptr %3, align 4
  store i32 1, ptr %7, align 4
  br label %56

52:                                               ; preds = %48
  br label %53

53:                                               ; preds = %52, %40
  %54 = load i8, ptr %6, align 1, !tbaa !10
  %55 = zext i8 %54 to i32
  store i32 %55, ptr %3, align 4
  store i32 1, ptr %7, align 4
  br label %56

56:                                               ; preds = %53, %51, %47, %39, %38, %34, %26, %25, %21, %17
  call void @llvm.lifetime.end.p0(i64 1, ptr %6) #19
  %57 = load i32, ptr %3, align 4
  ret i32 %57
}